target datalayout = "e-m:e-p270:32:32-p271:32:32-p272:64:64-i64:64-i128:128-f80:128-n8:16:32:64-S128"
target triple = "x86_64-pc-linux-gnu"

%struct.__va_list_tag = type { i32, i32, ptr, ptr }
%struct.tok_state = type { ptr, ptr, ptr, i32, ptr, ptr, ptr, ptr, i32, ptr, i32, i32, [100 x i32], i32, i32, ptr, ptr, i32, i32, i32, i32, i32, [200 x i8], [200 x i32], [200 x i32], ptr, [100 x i32], i32, i32, ptr, i32, ptr, ptr, ptr, ptr, ptr, ptr, ptr, ptr, i32, i32, ptr, i32, [150 x %struct._tokenizer_mode], i32, i32, i32, i32 }
%struct._tokenizer_mode = type { i32, i32, i32, i8, i32, i32, ptr, ptr, i32, i64, i64, i64, i64, ptr, i32, i32 }
%struct._object = type { %union.anon, ptr }
%union.anon = type { i64 }
%struct.anon = type { i32, i32 }

@.str.2 = private unnamed_addr constant [3 x i8] c"%U\00", align 1

; Function Attrs: alwaysinline nounwind uwtable
define internal i32 @_Py_IsImmortal(ptr noundef %0) #4 {
  %2 = alloca ptr, align 8
  store ptr %0, ptr %2, align 8, !tbaa !19
  %3 = load ptr, ptr %2, align 8, !tbaa !19
  %4 = getelementptr inbounds nuw %struct._object, ptr %3, i32 0, i32 0
  %5 = getelementptr inbounds nuw %struct.anon, ptr %4, i32 0, i32 0
  %6 = load i32, ptr %5, align 8, !tbaa !34
  %7 = icmp slt i32 %6, 0
  %8 = zext i1 %7 to i32
  ret i32 %8
}

; Function Attrs: inlinehint nounwind uwtable
define internal void @Py_XDECREF(ptr noundef %0) #5 {
  %2 = alloca ptr, align 8
  store ptr %0, ptr %2, align 8, !tbaa !19
  %3 = load ptr, ptr %2, align 8, !tbaa !19
  %4 = icmp ne ptr %3, null
  br i1 %4, label %5, label %7

5:                                                ; preds = %1
  %6 = load ptr, ptr %2, align 8, !tbaa !19
  call void @Py_DECREF(ptr noundef %6)
  br label %7

7:                                                ; preds = %5, %1
  ret void
}

; Function Attrs: alwaysinline nounwind uwtable
define internal void @Py_DECREF(ptr noundef %0) #4 {
  %2 = alloca ptr, align 8
  store ptr %0, ptr %2, align 8, !tbaa !19
  %3 = load ptr, ptr %2, align 8, !tbaa !19
  %4 = call i32 @_Py_IsImmortal(ptr noundef %3)
  %5 = icmp ne i32 %4, 0
  br i1 %5, label %6, label %7

6:                                                ; preds = %1
  br label %16

7:                                                ; preds = %1
  %8 = load ptr, ptr %2, align 8, !tbaa !19
  %9 = getelementptr inbounds nuw %struct._object, ptr %8, i32 0, i32 0
  %10 = getelementptr inbounds nuw %struct.anon, ptr %9, i32 0, i32 0
  %11 = load i32, ptr %10, align 8, !tbaa !34
  %12 = add i32 %11, -1
  store i32 %12, ptr %10, align 8, !tbaa !34
  %13 = icmp eq i32 %12, 0
  br i1 %13, label %14, label %16

14:                                               ; preds = %7
  %15 = load ptr, ptr %2, align 8, !tbaa !19
  call void @_Py_Dealloc(ptr noundef %15)
  br label %16

16:                                               ; preds = %6, %14, %7
  ret void
}

; Function Attrs: nounwind uwtable
define hidden i32 @_PyTokenizer_parser_warn(ptr noundef %0, ptr noundef %1, ptr noundef %2, ...) #0 {
  %4 = alloca i32, align 4
  %5 = alloca ptr, align 8
  %6 = alloca ptr, align 8
  %7 = alloca ptr, align 8
  %8 = alloca ptr, align 8
  %9 = alloca [1 x %struct.__va_list_tag], align 16
  %10 = alloca i32, align 4
  store ptr %0, ptr %5, align 8, !tbaa !4
  store ptr %1, ptr %6, align 8, !tbaa !19
  store ptr %2, ptr %7, align 8, !tbaa !9
  %11 = load ptr, ptr %5, align 8, !tbaa !4
  %12 = getelementptr inbounds nuw %struct.tok_state, ptr %11, i32 0, i32 42
  %13 = load i32, ptr %12, align 8, !tbaa !33
  %14 = icmp ne i32 %13, 0
  br i1 %14, label %16, label %15

15:                                               ; preds = %3
  store i32 0, ptr %4, align 4
  br label %52

16:                                               ; preds = %3
  call void @llvm.lifetime.start.p0(i64 8, ptr %8) #8
  call void @llvm.lifetime.start.p0(i64 24, ptr %9) #8
  %17 = getelementptr inbounds [1 x %struct.__va_list_tag], ptr %9, i64 0, i64 0
  call void @llvm.va_start.p0(ptr %17)
  %18 = load ptr, ptr %7, align 8, !tbaa !9
  %19 = getelementptr inbounds [1 x %struct.__va_list_tag], ptr %9, i64 0, i64 0
  %20 = call ptr @PyUnicode_FromFormatV(ptr noundef %18, ptr noundef %19)
  store ptr %20, ptr %8, align 8, !tbaa !19
  %21 = getelementptr inbounds [1 x %struct.__va_list_tag], ptr %9, i64 0, i64 0
  call void @llvm.va_end.p0(ptr %21)
  %22 = load ptr, ptr %8, align 8, !tbaa !19
  %23 = icmp ne ptr %22, null
  br i1 %23, label %25, label %24

24:                                               ; preds = %16
  br label %47

25:                                               ; preds = %16
  %26 = load ptr, ptr %6, align 8, !tbaa !19
  %27 = load ptr, ptr %8, align 8, !tbaa !19
  %28 = load ptr, ptr %5, align 8, !tbaa !4
  %29 = getelementptr inbounds nuw %struct.tok_state, ptr %28, i32 0, i32 25
  %30 = load ptr, ptr %29, align 8, !tbaa !24
  %31 = load ptr, ptr %5, align 8, !tbaa !4
  %32 = getelementptr inbounds nuw %struct.tok_state, ptr %31, i32 0, i32 17
  %33 = load i32, ptr %32, align 8, !tbaa !25
  %34 = call i32 @PyErr_WarnExplicitObject(ptr noundef %26, ptr noundef %27, ptr noundef %30, i32 noundef %33, ptr noundef null, ptr noundef null)
  %35 = icmp slt i32 %34, 0
  br i1 %35, label %36, label %45

36:                                               ; preds = %25
  %37 = load ptr, ptr %6, align 8, !tbaa !19
  %38 = call i32 @PyErr_ExceptionMatches(ptr noundef %37)
  %39 = icmp ne i32 %38, 0
  br i1 %39, label %40, label %44

40:                                               ; preds = %36
  call void @PyErr_Clear()
  %41 = load ptr, ptr %5, align 8, !tbaa !4
  %42 = load ptr, ptr %8, align 8, !tbaa !19
  %43 = call i32 (ptr, ptr, ...) @_PyTokenizer_syntaxerror(ptr noundef %41, ptr noundef @.str.2, ptr noundef %42)
  br label %44

44:                                               ; preds = %40, %36
  br label %47

45:                                               ; preds = %25
  %46 = load ptr, ptr %8, align 8, !tbaa !19
  call void @Py_DECREF(ptr noundef %46)
  store i32 0, ptr %4, align 4
  store i32 1, ptr %10, align 4
  br label %51

47:                                               ; preds = %44, %24
  %48 = load ptr, ptr %8, align 8, !tbaa !19
  call void @Py_XDECREF(ptr noundef %48)
  %49 = load ptr, ptr %5, align 8, !tbaa !4
  %50 = getelementptr inbounds nuw %struct.tok_state, ptr %49, i32 0, i32 8
  store i32 17, ptr %50, align 8, !tbaa !15
  store i32 -1, ptr %4, align 4
  store i32 1, ptr %10, align 4
  br label %51

51:                                               ; preds = %47, %45
  call void @llvm.lifetime.end.p0(i64 24, ptr %9) #8
  call void @llvm.lifetime.end.p0(i64 8, ptr %8) #8
  br label %52

52:                                               ; preds = %51, %15
  %53 = load i32, ptr %4, align 4
  ret i32 %53
}