; Function Attrs: nounwind uwtable
define hidden range(i32 -1, 1) i32 @_PyTokenizer_parser_warn(ptr noundef captures(none) %0, ptr noundef %1, ptr noundef %2, ...) local_unnamed_addr #0 {
  %4 = alloca [1 x %struct.__va_list_tag], align 16
  %5 = getelementptr inbounds nuw i8, ptr %0, i64 2848
  %6 = load i32, ptr %5, align 8, !tbaa !31
  %.not = icmp eq i32 %6, 0
  br i1 %.not, label %33, label %7

7:                                                ; preds = %3
  call void @llvm.lifetime.start.p0(i64 24, ptr nonnull %4) #9
  call void @llvm.va_start.p0(ptr nonnull %4)
  %8 = call ptr @PyUnicode_FromFormatV(ptr noundef %2, ptr noundef nonnull %4) #9
  call void @llvm.va_end.p0(ptr nonnull %4)
  %.not14 = icmp eq ptr %8, null
  br i1 %.not14, label %Py_XDECREF.exit, label %9

9:                                                ; preds = %7
  %10 = getelementptr inbounds nuw i8, ptr %0, i64 2336
  %11 = load ptr, ptr %10, align 8, !tbaa !23
  %12 = getelementptr inbounds nuw i8, ptr %0, i64 512
  %13 = load i32, ptr %12, align 8, !tbaa !24
  %14 = call i32 @PyErr_WarnExplicitObject(ptr noundef %1, ptr noundef nonnull %8, ptr noundef %11, i32 noundef %13, ptr noundef null, ptr noundef null) #9
  %15 = icmp slt i32 %14, 0
  br i1 %15, label %16, label %20

16:                                               ; preds = %9
  %17 = call i32 @PyErr_ExceptionMatches(ptr noundef %1) #9
  %.not15 = icmp eq i32 %17, 0
  br i1 %.not15, label %26, label %18

18:                                               ; preds = %16
  call void @PyErr_Clear() #9
  %19 = call i32 (ptr, ptr, ...) @_PyTokenizer_syntaxerror(ptr noundef nonnull %0, ptr noundef nonnull @.str.2, ptr noundef nonnull %8)
  br label %26

20:                                               ; preds = %9
  %21 = load i32, ptr %8, align 8, !tbaa !22
  %.not.i = icmp sgt i32 %21, -1
  br i1 %.not.i, label %22, label %Py_DECREF.exit

22:                                               ; preds = %20
  %23 = add nsw i32 %21, -1
  store i32 %23, ptr %8, align 8, !tbaa !22
  %24 = icmp eq i32 %23, 0
  br i1 %24, label %25, label %Py_DECREF.exit

25:                                               ; preds = %22
  call void @_Py_Dealloc(ptr noundef nonnull %8) #9
  br label %Py_DECREF.exit

26:                                               ; preds = %16, %18
  %27 = load i32, ptr %8, align 8, !tbaa !22
  %.not.i.i = icmp sgt i32 %27, -1
  br i1 %.not.i.i, label %28, label %Py_XDECREF.exit

28:                                               ; preds = %26
  %29 = add nsw i32 %27, -1
  store i32 %29, ptr %8, align 8, !tbaa !22
  %30 = icmp eq i32 %29, 0
  br i1 %30, label %31, label %Py_XDECREF.exit

31:                                               ; preds = %28
  call void @_Py_Dealloc(ptr noundef nonnull %8) #9
  br label %Py_XDECREF.exit

Py_XDECREF.exit:                                  ; preds = %7, %26, %28, %31
  %32 = getelementptr inbounds nuw i8, ptr %0, i64 64
  store i32 17, ptr %32, align 8, !tbaa !4
  br label %Py_DECREF.exit

Py_DECREF.exit:                                   ; preds = %25, %22, %20, %Py_XDECREF.exit
  %.1 = phi i32 [ -1, %Py_XDECREF.exit ], [ 0, %20 ], [ 0, %22 ], [ 0, %25 ]
  call void @llvm.lifetime.end.p0(i64 24, ptr nonnull %4) #9
  br label %33

33:                                               ; preds = %3, %Py_DECREF.exit
  %.0 = phi i32 [ %.1, %Py_DECREF.exit ], [ 0, %3 ]
  ret i32 %.0
}